; Function Attrs: inlinehint mustprogress nounwind uwtable
define internal void @_ZN12_GLOBAL__N_124ParallelDivComplexByRealD2Ev(ptr noundef nonnull align 8 dereferenceable(80) initializes((0, 8)) %0) unnamed_addr #6 align 2 personality ptr @__gxx_personality_v0 {
  store ptr getelementptr inbounds nuw inrange(-16, 24) (i8, ptr @_ZTVN12_GLOBAL__N_124ParallelDivComplexByRealE, i64 16), ptr %0, align 8, !tbaa !46
  %2 = getelementptr inbounds nuw i8, ptr %0, i64 56
  %3 = load ptr, ptr %2, align 8, !tbaa !57
  %4 = getelementptr inbounds nuw i8, ptr %0, i64 64
  %5 = load ptr, ptr %4, align 8, !tbaa !48
  %.not4.i.i.i.i = icmp eq ptr %3, %5
  br i1 %.not4.i.i.i.i, label %_ZSt8_DestroyIPN2cv3MatES1_EvT_S3_RSaIT0_E.exit.i, label %.lr.ph.i.i.i.i

.lr.ph.i.i.i.i:                                   ; preds = %1, %.lr.ph.i.i.i.i
  %.05.i.i.i.i = phi ptr [ %6, %.lr.ph.i.i.i.i ], [ %3, %1 ]
  tail call void @_ZN2cv3MatD1Ev(ptr noundef nonnull align 8 dereferenceable(96) %.05.i.i.i.i) #16
  %6 = getelementptr inbounds nuw i8, ptr %.05.i.i.i.i, i64 96
  %.not.i.i.i.i = icmp eq ptr %6, %5
  br i1 %.not.i.i.i.i, label %_ZSt8_DestroyIPN2cv3MatES1_EvT_S3_RSaIT0_E.exitthread-pre-split.i, label %.lr.ph.i.i.i.i, !llvm.loop !60

_ZSt8_DestroyIPN2cv3MatES1_EvT_S3_RSaIT0_E.exitthread-pre-split.i: ; preds = %.lr.ph.i.i.i.i
  %.pr.i = load ptr, ptr %2, align 8, !tbaa !57
  br label %_ZSt8_DestroyIPN2cv3MatES1_EvT_S3_RSaIT0_E.exit.i

_ZSt8_DestroyIPN2cv3MatES1_EvT_S3_RSaIT0_E.exit.i: ; preds = %_ZSt8_DestroyIPN2cv3MatES1_EvT_S3_RSaIT0_E.exitthread-pre-split.i, %1
  %7 = phi ptr [ %.pr.i, %_ZSt8_DestroyIPN2cv3MatES1_EvT_S3_RSaIT0_E.exitthread-pre-split.i ], [ %3, %1 ]
  %.not.i.i.i = icmp eq ptr %7, null
  br i1 %.not.i.i.i, label %_ZNSt6vectorIN2cv3MatESaIS1_EED2Ev.exit, label %8

8:                                                ; preds = %_ZSt8_DestroyIPN2cv3MatES1_EvT_S3_RSaIT0_E.exit.i
  tail call void @_ZdlPv(ptr noundef nonnull %7) #18
  br label %_ZNSt6vectorIN2cv3MatESaIS1_EED2Ev.exit

_ZNSt6vectorIN2cv3MatESaIS1_EED2Ev.exit:          ; preds = %_ZSt8_DestroyIPN2cv3MatES1_EvT_S3_RSaIT0_E.exit.i, %8
  %9 = getelementptr inbounds nuw i8, ptr %0, i64 32
  %10 = load ptr, ptr %9, align 8, !tbaa !57
  %11 = getelementptr inbounds nuw i8, ptr %0, i64 40
  %12 = load ptr, ptr %11, align 8, !tbaa !48
  %.not4.i.i.i.i1 = icmp eq ptr %10, %12
  br i1 %.not4.i.i.i.i1, label %_ZSt8_DestroyIPN2cv3MatES1_EvT_S3_RSaIT0_E.exit.i7, label %.lr.ph.i.i.i.i2

.lr.ph.i.i.i.i2:                                  ; preds = %_ZNSt6vectorIN2cv3MatESaIS1_EED2Ev.exit, %.lr.ph.i.i.i.i2
  %.05.i.i.i.i3 = phi ptr [ %13, %.lr.ph.i.i.i.i2 ], [ %10, %_ZNSt6vectorIN2cv3MatESaIS1_EED2Ev.exit ]
  tail call void @_ZN2cv3MatD1Ev(ptr noundef nonnull align 8 dereferenceable(96) %.05.i.i.i.i3) #16
  %13 = getelementptr inbounds nuw i8, ptr %.05.i.i.i.i3, i64 96
  %.not.i.i.i.i4 = icmp eq ptr %13, %12
  br i1 %.not.i.i.i.i4, label %_ZSt8_DestroyIPN2cv3MatES1_EvT_S3_RSaIT0_E.exitthread-pre-split.i5, label %.lr.ph.i.i.i.i2, !llvm.loop !60

_ZSt8_DestroyIPN2cv3MatES1_EvT_S3_RSaIT0_E.exitthread-pre-split.i5: ; preds = %.lr.ph.i.i.i.i2
  %.pr.i6 = load ptr, ptr %9, align 8, !tbaa !57
  br label %_ZSt8_DestroyIPN2cv3MatES1_EvT_S3_RSaIT0_E.exit.i7

_ZSt8_DestroyIPN2cv3MatES1_EvT_S3_RSaIT0_E.exit.i7: ; preds = %_ZSt8_DestroyIPN2cv3MatES1_EvT_S3_RSaIT0_E.exitthread-pre-split.i5, %_ZNSt6vectorIN2cv3MatESaIS1_EED2Ev.exit
  %14 = phi ptr [ %.pr.i6, %_ZSt8_DestroyIPN2cv3MatES1_EvT_S3_RSaIT0_E.exitthread-pre-split.i5 ], [ %10, %_ZNSt6vectorIN2cv3MatESaIS1_EED2Ev.exit ]
  %.not.i.i.i8 = icmp eq ptr %14, null
  br i1 %.not.i.i.i8, label %_ZNSt6vectorIN2cv3MatESaIS1_EED2Ev.exit9, label %15

15:                                               ; preds = %_ZSt8_DestroyIPN2cv3MatES1_EvT_S3_RSaIT0_E.exit.i7
  tail call void @_ZdlPv(ptr noundef nonnull %14) #18
  br label %_ZNSt6vectorIN2cv3MatESaIS1_EED2Ev.exit9

_ZNSt6vectorIN2cv3MatESaIS1_EED2Ev.exit9:         ; preds = %_ZSt8_DestroyIPN2cv3MatES1_EvT_S3_RSaIT0_E.exit.i7, %15
  %16 = getelementptr inbounds nuw i8, ptr %0, i64 8
  %17 = load ptr, ptr %16, align 8, !tbaa !57
  %18 = getelementptr inbounds nuw i8, ptr %0, i64 16
  %19 = load ptr, ptr %18, align 8, !tbaa !48
  %.not4.i.i.i.i10 = icmp eq ptr %17, %19
  br i1 %.not4.i.i.i.i10, label %_ZSt8_DestroyIPN2cv3MatES1_EvT_S3_RSaIT0_E.exit.i16, label %.lr.ph.i.i.i.i11

.lr.ph.i.i.i.i11:                                 ; preds = %_ZNSt6vectorIN2cv3MatESaIS1_EED2Ev.exit9, %.lr.ph.i.i.i.i11
  %.05.i.i.i.i12 = phi ptr [ %20, %.lr.ph.i.i.i.i11 ], [ %17, %_ZNSt6vectorIN2cv3MatESaIS1_EED2Ev.exit9 ]
  tail call void @_ZN2cv3MatD1Ev(ptr noundef nonnull align 8 dereferenceable(96) %.05.i.i.i.i12) #16
  %20 = getelementptr inbounds nuw i8, ptr %.05.i.i.i.i12, i64 96
  %.not.i.i.i.i13 = icmp eq ptr %20, %19
  br i1 %.not.i.i.i.i13, label %_ZSt8_DestroyIPN2cv3MatES1_EvT_S3_RSaIT0_E.exitthread-pre-split.i14, label %.lr.ph.i.i.i.i11, !llvm.loop !60

_ZSt8_DestroyIPN2cv3MatES1_EvT_S3_RSaIT0_E.exitthread-pre-split.i14: ; preds = %.lr.ph.i.i.i.i11
  %.pr.i15 = load ptr, ptr %16, align 8, !tbaa !57
  br label %_ZSt8_DestroyIPN2cv3MatES1_EvT_S3_RSaIT0_E.exit.i16

_ZSt8_DestroyIPN2cv3MatES1_EvT_S3_RSaIT0_E.exit.i16: ; preds = %_ZSt8_DestroyIPN2cv3MatES1_EvT_S3_RSaIT0_E.exitthread-pre-split.i14, %_ZNSt6vectorIN2cv3MatESaIS1_EED2Ev.exit9
  %21 = phi ptr [ %.pr.i15, %_ZSt8_DestroyIPN2cv3MatES1_EvT_S3_RSaIT0_E.exitthread-pre-split.i14 ], [ %17, %_ZNSt6vectorIN2cv3MatESaIS1_EED2Ev.exit9 ]
  %.not.i.i.i17 = icmp eq ptr %21, null
  br i1 %.not.i.i.i17, label %_ZNSt6vectorIN2cv3MatESaIS1_EED2Ev.exit18, label %22

22:                                               ; preds = %_ZSt8_DestroyIPN2cv3MatES1_EvT_S3_RSaIT0_E.exit.i16
  tail call void @_ZdlPv(ptr noundef nonnull %21) #18
  br label %_ZNSt6vectorIN2cv3MatESaIS1_EED2Ev.exit18

_ZNSt6vectorIN2cv3MatESaIS1_EED2Ev.exit18:        ; preds = %_ZSt8_DestroyIPN2cv3MatES1_EvT_S3_RSaIT0_E.exit.i16, %22
  tail call void @_ZN2cv16ParallelLoopBodyD2Ev(ptr noundef nonnull align 8 dereferenceable(8) %0) #16
  ret void
}